 SkyOS32

 Timestamp is 5d124c0f (Wed Jun 26 01:30:07 2019)

 Preferred load address is 00100000

 Start         Length     Name                   Class
 0001:00000000 000049b4H .text$mn                CODE
 0002:00000000 000000dcH .rdata                  DATA
 0002:000000dc 00000000H .edata                  DATA
 0002:000000dc 000000b0H .rdata$zzzdbg           DATA
 0003:00000000 00000004H .CRT$XCA                DATA
 0003:00000004 00000004H .CRT$XCZ                DATA
 0003:00000008 00000004H .CRT$XIA                DATA
 0003:0000000c 00000004H .CRT$XIZ                DATA
 0003:00000010 00000280H .data                   DATA
 0003:00000290 00001c4cH .bss                    DATA

  Address         Publics by Value              Rva+Base       Lib:Object

 0000:00000000       ___guard_fids_count        00000000     <absolute>
 0000:00000000       ___hybrid_code_map         00000000     <absolute>
 0000:00000000       ___guard_iat_table         00000000     <absolute>
 0000:00000000       ___hybrid_code_map_count   00000000     <absolute>
 0000:00000000       ___guard_longjmp_table     00000000     <absolute>
 0000:00000000       ___guard_iat_count         00000000     <absolute>
 0000:00000000       ___dynamic_value_reloc_table 00000000     <absolute>
 0000:00000000       ___guard_fids_table        00000000     <absolute>
 0000:00000000       ___volatile_metadata       00000000     <absolute>
 0000:00000000       ___guard_flags             00000000     <absolute>
 0000:00000000       ___guard_longjmp_count     00000000     <absolute>
 0000:00000000       ___enclave_config          00000000     <absolute>
 0000:00000000       ___hybrid_auxiliary_iat    00000000     <absolute>
 0001:00000000       ?multiboot_entry@@YAXXZ    00100400 f   kmain.obj
 0001:00000040       ?GDTInitialize@@YAHXZ      00100440 f   GDT.obj
 0001:00000110       ?gdt_set_descriptor@@YAXI_K0EE@Z 00100510 f   GDT.obj
 0001:000001e0       ?OutPortByte@@YAXGE@Z      001005e0 f   Hal.obj
 0001:000001f0       ?setvect@@YAXHA6AXXZH@Z    001005f0 f   Hal.obj
 0001:00000220       ?IDTInitialize@@YA_NG@Z    00100620 f   IDT.obj
 0001:000002c0       ?InstallInterrputHandler@@YA_NIGGP6AXXZ@Z 001006c0 f   IDT.obj
 0001:00000380       ?InterruptDefaultHandler@@YAXXZ 00100780 f   IDT.obj
 0001:00000390       ?SendEOI@@YAXXZ            00100790 f   IDT.obj
 0001:000003b0       ?PICInitialize@@YAXEE@Z    001007b0 f   Pic.obj
 0001:00000460       ?SendCommandToPIC@@YAXEE@Z 00100860 f i Pic.obj
 0001:000004b0       ?SendDataToPIC@@YAXEE@Z    001008b0 f i Pic.obj
 0001:00000500       ?InitializePIT@@YAXXZ      00100900 f   PIT.obj
 0001:00000520       ?InterruptPITHandler@@YAXXZ 00100920 f   PIT.obj
 0001:00000570       ?SendPITCommand@@YAXE@Z    00100970 f   PIT.obj
 0001:00000590       ?SendPITData@@YAXGE@Z      00100990 f   PIT.obj
 0001:000005f0       ?StartPITCounter@@YAXIEE@Z 001009f0 f   PIT.obj
 0001:00000690       ?HardwareInitialize@@YAXXZ 00100a90 f   kmain.obj
 0001:000006c0       ?kmain@@YAXKK@Z            00100ac0 f   kmain.obj
 0001:00000720       ?kEnterCriticalSection@@YAXPAU_CRITICAL_SECTION@@@Z 00100b20 f   SkyAPI.obj
 0001:00000740       ?kLeaveCriticalSection@@YAXPAU_CRITICAL_SECTION@@@Z 00100b40 f   SkyAPI.obj
 0001:00000760       ?Clear@SkyConsole@@YAXXZ   00100b60 f   SkyConsole.obj
 0001:000007c0       ?Initialize@SkyConsole@@YAXXZ 00100bc0 f   SkyConsole.obj
 0001:00000870       ?MoveCursor@SkyConsole@@YAXII@Z 00100c70 f   SkyConsole.obj
 0001:00000930       ?Print@SkyConsole@@YAXPBDZZ 00100d30 f   SkyConsole.obj
 0001:00000c00       ?Write@SkyConsole@@YAXPBD@Z 00101000 f   SkyConsole.obj
 0001:00000c40       ?WriteChar@SkyConsole@@YAXDW4ConsoleColor@@0@Z 00101040 f   SkyConsole.obj
 0001:00000dd0       ?scrollup@SkyConsole@@YAXXZ 001011d0 f   SkyConsole.obj
 0001:00000e70       _memcpy                    00101270 f   CommonLib:memory.obj
 0001:00000ec0       _memset                    001012c0 f   CommonLib:memory.obj
 0001:00000ef0       _memcmp                    001012f0 f   CommonLib:memory.obj
 0001:00000f60       _memmove                   00101360 f   CommonLib:memory.obj
 0001:00000fe0       _memchr                    001013e0 f   CommonLib:memory.obj
 0001:00001030       _atexit                    00101430 f   CommonLib:cstd.obj
 0001:00001080       ?_atexit_init@@YAXXZ       00101480 f   CommonLib:cstd.obj
 0001:000010a0       ?Exit@@YAXXZ               001014a0 f   CommonLib:cstd.obj
 0001:000010e0       ?InitializeConstructors@@YAXXZ 001014e0 f   CommonLib:cstd.obj
 0001:00001100       ?_purecall_handler@@YAHXZ  00101500 f   CommonLib:cstd.obj
 0001:00001110       __CIcos                    00101510 f   CommonLib:cstd.obj
 0001:00001120       __CIsin                    00101520 f   CommonLib:cstd.obj
 0001:00001130       __CIsqrt                   00101530 f   CommonLib:cstd.obj
 0001:00001140       __ftol2_sse                00101540 f   CommonLib:cstd.obj
 0001:00001150       __aullshr                  00101550 f   CommonLib:cstd.obj
 0001:00001170       __dtol3                    00101570 f   CommonLib:cstd.obj
 0001:00001180       __dtoui3                   00101580 f   CommonLib:cstd.obj
 0001:00001190       __dtoul3                   00101590 f   CommonLib:cstd.obj
 0001:000011d0       _strcpy                    001015d0 f   CommonLib:string.obj
 0001:00001210       _strlen                    00101610 f   CommonLib:string.obj
 0001:00001240       _strcmp                    00101640 f   CommonLib:string.obj
 0001:000012a0       _strncmp                   001016a0 f   CommonLib:string.obj
 0001:00001320       _strncasecmp               00101720 f   CommonLib:string.obj
 0001:000013d0       _strstr                    001017d0 f   CommonLib:string.obj
 0001:00001450       _strupr                    00101850 f   CommonLib:string.obj
 0001:000014a0       _strcat                    001018a0 f   CommonLib:string.obj
 0001:00001510       _strncat                   00101910 f   CommonLib:string.obj
 0001:00001570       _strchr                    00101970 f   CommonLib:string.obj
 0001:000015b0       _stricmp                   001019b0 f   CommonLib:string.obj
 0001:000016a0       _strpbrk                   00101aa0 f   CommonLib:string.obj
 0001:000016f0       _strtok                    00101af0 f   CommonLib:string.obj
 0001:00001770       _strspn                    00101b70 f   CommonLib:string.obj
 0001:000017e0       _strncpy                   00101be0 f   CommonLib:string.obj
 0001:00001830       _strnicmp                  00101c30 f   CommonLib:string.obj
 0001:000018a0       _strnchr                   00101ca0 f   CommonLib:string.obj
 0001:000018f0       _strrchr                   00101cf0 f   CommonLib:string.obj
 0001:00001940       _strxfrm                   00101d40 f   CommonLib:string.obj
 0001:000019d0       _strcoll                   00101dd0 f   CommonLib:string.obj
 0001:000019f0       _strtod                    00101df0 f   CommonLib:string.obj
 0001:00001d90       _strcspn                   00102190 f   CommonLib:string.obj
 0001:00001e00       _ftoa_fixed                00102200 f   CommonLib:string.obj
 0001:00001fa0       _ftoa_sci                  001023a0 f   CommonLib:string.obj
 0001:00002100       _strichr                   00102500 f   CommonLib:string.obj
 0001:00002160       _strtok_r                  00102560 f   CommonLib:string.obj
 0001:00002280       _memsetw                   00102680 f   CommonLib:string.obj
 0001:000022c0       ?normalize@@YAHPAN@Z       001026c0 f   CommonLib:string.obj
 0001:00002380       _sprintf                   00102780 f   CommonLib:sprintf.obj
 0001:000023b0       _itoa                      001027b0 f   CommonLib:sprintf.obj
 0001:00002480       _itoa_s                    00102880 f   CommonLib:sprintf.obj
 0001:000024b0       __i64toa                   001028b0 f   CommonLib:sprintf.obj
 0001:000025c0       ?itoa_s@@YAXHIPAD@Z        001029c0 f   CommonLib:sprintf.obj
 0001:00002600       _strtoul                   00102a00 f   CommonLib:stdio.obj
 0001:00002860       _vsprintf                  00102c60 f   CommonLib:stdio.obj
 0001:00002d90       _strtol                    00103190 f   CommonLib:stdio.obj
 0001:00003020       _atoi                      00103420 f   CommonLib:stdio.obj
 0001:00003040       _atof                      00103440 f   CommonLib:stdio.obj
 0001:000031d0       _sscanf                    001035d0 f   CommonLib:stdio.obj
 0001:00003200       _simple_strtoul            00103600 f   CommonLib:stdio.obj
 0001:00003330       _simple_strtol             00103730 f   CommonLib:stdio.obj
 0001:00003370       _simple_strtoull           00103770 f   CommonLib:stdio.obj
 0001:000034c0       _simple_strtoll            001038c0 f   CommonLib:stdio.obj
 0001:00003510       _vnsprintf                 00103910 f   CommonLib:stdio.obj
 0001:00003a50       ?vsscanf@@YAHPBD0PAE@Z     00103e50 f   CommonLib:stdio.obj
 0001:00004180       __aulldiv                  00104580 f   CommonLib:ulldiv.obj
 0001:000041f0       __aullrem                  001045f0 f   CommonLib:ullrem.obj
 0001:00004460       _atob                      00104860 f   CommonLib:atob.obj
 0001:000044b0       _btoa                      001048b0 f   CommonLib:atob.obj
 0001:00004620       _gethex                    00104a20 f   CommonLib:atob.obj
 0001:000047b0       __isctype                  00104bb0 f   CommonLib:ctype.obj
 0001:000047e0       _isspace                   00104be0 f   CommonLib:ctype.obj
 0001:00004800       _isupper                   00104c00 f   CommonLib:ctype.obj
 0001:00004820       _islower                   00104c20 f   CommonLib:ctype.obj
 0001:00004840       _isdigit                   00104c40 f   CommonLib:ctype.obj
 0001:00004860       _isxdigit                  00104c60 f   CommonLib:ctype.obj
 0001:00004880       _ispunct                   00104c80 f   CommonLib:ctype.obj
 0001:000048a0       _isalpha                   00104ca0 f   CommonLib:ctype.obj
 0001:000048c0       _isalnum                   00104cc0 f   CommonLib:ctype.obj
 0001:000048e0       _isprint                   00104ce0 f   CommonLib:ctype.obj
 0001:00004900       _isgraph                   00104d00 f   CommonLib:ctype.obj
 0001:00004920       _iscntrl                   00104d20 f   CommonLib:ctype.obj
 0001:00004940       _isleadbyte                00104d40 f   CommonLib:ctype.obj
 0001:00004960       _toupper                   00104d60 f   CommonLib:ctype.obj
 0001:00004990       _tolower                   00104d90 f   CommonLib:ctype.obj
 0002:00000070       __real@0000000000000000    00105070     CommonLib:string.obj
 0002:00000078       __real@3fb999999999999a    00105078     CommonLib:string.obj
 0002:00000080       __real@3ff0000000000000    00105080     CommonLib:string.obj
 0002:00000088       __real@4024000000000000    00105088     CommonLib:string.obj
 0002:00000090       __real@41cdcd6500000000    00105090     CommonLib:string.obj
 0002:000000a0       __xmm@80000000000000008000000000000000 001050a0     CommonLib:string.obj
 0003:00000000       ?__xc_a@@3PAP6AXXZA        00105400     CommonLib:cstd.obj
 0003:00000004       ?__xc_z@@3PAP6AXXZA        00105404     CommonLib:cstd.obj
 0003:00000008       ?__xi_a@@3PAP6AXXZA        00105408     CommonLib:cstd.obj
 0003:0000000c       ?__xi_z@@3PAP6AXXZA        0010540c     CommonLib:cstd.obj
 0003:00000010       __fltused                  00105410     CommonLib:cstd.obj
 0003:00000068       ?bchars@@3PADA             00105468     CommonLib:sprintf.obj
 0003:00000080       __pctype                   00105480     CommonLib:ctype.obj
 0003:00000088       ?_ctype@@3PAGA             00105488     CommonLib:ctype.obj
 0003:00000af0       ?_pitTicks@@3IC            00105ef0     PIT.obj
 0003:00000af4       ?_lastTickCount@@3KA       00105ef4     PIT.obj
 0003:00000af8       ?g_criticalSection@@3U_CRITICAL_SECTION@@A 00105ef8     SkyAPI.obj
 0003:00000b28       ?runtimeTempBuffer@@3PADA  00105f28     CommonLib:cstd.obj
 0003:00001ebc       ?tbuf@@3PADA               001072bc     CommonLib:sprintf.obj

 entry point at        0001:00000000

 Static symbols

 0001:00000100       ?InstallGDT@@YAXXZ         00100500 f   GDT.obj
 0001:000002b0       ?IDTInstall@@YAXXZ         001006b0 f   IDT.obj
 0001:00000bbc       $LN21                      00100fbc     SkyConsole.obj
 0001:00000bd8       $LN20                      00100fd8     SkyConsole.obj
 0001:000011a0       ?_initterm@@YAXPAP6AXXZ0@Z 001015a0 f   CommonLib:cstd.obj
 0001:00002200       ?ToUpper@@YAEE@Z           00102600 f   CommonLib:string.obj
 0001:00002230       ?IsDigit@@YAEE@Z           00102630 f   CommonLib:string.obj
 0001:00002250       ?IsSpace@@YAEE@Z           00102650 f   CommonLib:string.obj
 0001:00002350       ?ToLower@@YAEE@Z           00102750 f   CommonLib:string.obj
 0001:00002d34       $LN27                      00103134     CommonLib:stdio.obj
 0001:00002d5c       $LN26                      0010315c     CommonLib:stdio.obj
 0001:000039a4       $LN25                      00103da4     CommonLib:stdio.obj
 0001:000039cc       $LN24                      00103dcc     CommonLib:stdio.obj
 0001:00003a00       ?skip_atoi@@YAHPAPBD@Z     00103e00 f   CommonLib:stdio.obj
 0001:000040bc       $LN78                      001044bc     CommonLib:stdio.obj
 0001:000040e4       $LN76                      001044e4     CommonLib:stdio.obj
 0001:00004138       $LN79                      00104538     CommonLib:stdio.obj
 0001:0000414c       $LN77                      0010454c     CommonLib:stdio.obj
 0001:00004180       $$000000                   00104580     CommonLib:ulldiv.obj
 0001:000041f0       $$000000                   001045f0     CommonLib:ullrem.obj
 0001:00004270       __atob                     00104670 f   CommonLib:atob.obj
 0001:00004700       __getbase                  00104b00 f   CommonLib:atob.obj
 0001:00004794       $LN11                      00104b94     CommonLib:atob.obj
 0001:000047a4       $LN10                      00104ba4     CommonLib:atob.obj
 0002:00000000       $SG2919                    00105000     PIT.obj
 0002:00000014       $SG6248                    00105014     kmain.obj
 0002:00000038       $SG6249                    00105038     kmain.obj
 0002:00000050       $SG6255                    00105050     kmain.obj
 0002:00000068       $SG5866                    00105068     SkyAPI.obj
 0002:000000b0       $SG3262                    001050b0     CommonLib:stdio.obj
 0003:00000014       ?max_atexitlist_entries@@3IA 00105414     CommonLib:cstd.obj
 0003:00000018       ?maxExponent@@3HA          00105418     CommonLib:string.obj
 0003:00000020       ?powersOf10@@3PANA         00105420     CommonLib:string.obj
 0003:00000078       $SG4638                    00105478     CommonLib:atob.obj
 0003:00000290       ?_gdt@@3PAUgdt_descriptor@@A 00105690     GDT.obj
 0003:000002e0       ?_gdtr@@3Utag_gdtr@@A      001056e0     GDT.obj
 0003:000002e8       ?_idt@@3PAUtag_idt_descriptor@@A 001056e8     IDT.obj
 0003:00000ae8       ?_idtr@@3Uidtr@@A          00105ee8     IDT.obj
 0003:00000b00       ?m_Color@SkyConsole@@3W4ConsoleColor@@A 00105f00     SkyConsole.obj
 0003:00000b04       ?m_Text@SkyConsole@@3W4ConsoleColor@@A 00105f04     SkyConsole.obj
 0003:00000b08       ?m_backGroundColor@SkyConsole@@3W4ConsoleColor@@A 00105f08     SkyConsole.obj
 0003:00000b0c       ?m_xPos@SkyConsole@@3IA    00105f0c     SkyConsole.obj
 0003:00000b10       ?m_yPos@SkyConsole@@3IA    00105f10     SkyConsole.obj
 0003:00000b14       ?m_pVideoMemory@SkyConsole@@3PAGA 00105f14     SkyConsole.obj
 0003:00000b18       ?m_ScreenHeight@SkyConsole@@3IA 00105f18     SkyConsole.obj
 0003:00000b1c       ?m_ScreenWidth@SkyConsole@@3IA 00105f1c     SkyConsole.obj
 0003:00000b20       ?m_VideoCardType@SkyConsole@@3GA 00105f20     SkyConsole.obj
 0003:00001eb0       ?pf_atexitlist@@3PAP6AXXZA 001072b0     CommonLib:cstd.obj
 0003:00001eb4       ?cur_atexitlist_entries@@3IA 001072b4     CommonLib:cstd.obj
 0003:00001eb8       ?lastToken@?1??strtok@@9@4PADA 001072b8     CommonLib:string.obj
